target datalayout = "e-m:e-p270:32:32-p271:32:32-p272:64:64-i64:64-i128:128-f80:128-n8:16:32:64-S128"
target triple = "x86_64-pc-linux-gnu"

%struct.langinfo_constant = type { ptr, i32, i32 }
%struct._locale_state = type { ptr }

@.str.102 = private unnamed_addr constant [9 x i8] c"LC_CTYPE\00", align 1
@.str.103 = private unnamed_addr constant [8 x i8] c"LC_TIME\00", align 1
@.str.104 = private unnamed_addr constant [11 x i8] c"LC_COLLATE\00", align 1
@.str.105 = private unnamed_addr constant [12 x i8] c"LC_MONETARY\00", align 1
@.str.106 = private unnamed_addr constant [12 x i8] c"LC_MESSAGES\00", align 1
@.str.107 = private unnamed_addr constant [11 x i8] c"LC_NUMERIC\00", align 1
@.str.108 = private unnamed_addr constant [7 x i8] c"LC_ALL\00", align 1
@.str.109 = private unnamed_addr constant [9 x i8] c"CHAR_MAX\00", align 1
@.str.110 = private unnamed_addr constant [13 x i8] c"locale.Error\00", align 1
@.str.111 = private unnamed_addr constant [6 x i8] c"Error\00", align 1

; Function Attrs: inlinehint nounwind uwtable
define internal ptr @get_locale_state(ptr noundef %0) #3 {
  %2 = alloca ptr, align 8
  %3 = alloca ptr, align 8
  store ptr %0, ptr %2, align 8, !tbaa !4
  call void @llvm.lifetime.start.p0(i64 8, ptr %3) #9
  %4 = load ptr, ptr %2, align 8, !tbaa !4
  %5 = call ptr @PyModule_GetState(ptr noundef %4)
  store ptr %5, ptr %3, align 8, !tbaa !9
  %6 = load ptr, ptr %3, align 8, !tbaa !9
  call void @llvm.lifetime.end.p0(i64 8, ptr %3) #9
  ret ptr %6
}

; Function Attrs: nounwind uwtable
define internal i32 @_locale_exec(ptr noundef %0) #0 {
  %2 = alloca i32, align 4
  %3 = alloca ptr, align 8
  %4 = alloca i32, align 4
  %5 = alloca i32, align 4
  %6 = alloca ptr, align 8
  store ptr %0, ptr %3, align 8, !tbaa !4
  call void @llvm.lifetime.start.p0(i64 4, ptr %4) #9
  br label %7

7:                                                ; preds = %1
  %8 = load ptr, ptr %3, align 8, !tbaa !4
  %9 = call i32 @PyModule_AddIntConstant(ptr noundef %8, ptr noundef @.str.102, i64 noundef 0)
  %10 = icmp slt i32 %9, 0
  br i1 %10, label %11, label %12

11:                                               ; preds = %7
  store i32 -1, ptr %2, align 4
  store i32 1, ptr %5, align 4
  br label %117

12:                                               ; preds = %7
  br label %13

13:                                               ; preds = %12
  br label %14

14:                                               ; preds = %13
  br label %15

15:                                               ; preds = %14
  %16 = load ptr, ptr %3, align 8, !tbaa !4
  %17 = call i32 @PyModule_AddIntConstant(ptr noundef %16, ptr noundef @.str.103, i64 noundef 2)
  %18 = icmp slt i32 %17, 0
  br i1 %18, label %19, label %20

19:                                               ; preds = %15
  store i32 -1, ptr %2, align 4
  store i32 1, ptr %5, align 4
  br label %117

20:                                               ; preds = %15
  br label %21

21:                                               ; preds = %20
  br label %22

22:                                               ; preds = %21
  br label %23

23:                                               ; preds = %22
  %24 = load ptr, ptr %3, align 8, !tbaa !4
  %25 = call i32 @PyModule_AddIntConstant(ptr noundef %24, ptr noundef @.str.104, i64 noundef 3)
  %26 = icmp slt i32 %25, 0
  br i1 %26, label %27, label %28

27:                                               ; preds = %23
  store i32 -1, ptr %2, align 4
  store i32 1, ptr %5, align 4
  br label %117

28:                                               ; preds = %23
  br label %29

29:                                               ; preds = %28
  br label %30

30:                                               ; preds = %29
  br label %31

31:                                               ; preds = %30
  %32 = load ptr, ptr %3, align 8, !tbaa !4
  %33 = call i32 @PyModule_AddIntConstant(ptr noundef %32, ptr noundef @.str.105, i64 noundef 4)
  %34 = icmp slt i32 %33, 0
  br i1 %34, label %35, label %36

35:                                               ; preds = %31
  store i32 -1, ptr %2, align 4
  store i32 1, ptr %5, align 4
  br label %117

36:                                               ; preds = %31
  br label %37

37:                                               ; preds = %36
  br label %38

38:                                               ; preds = %37
  br label %39

39:                                               ; preds = %38
  %40 = load ptr, ptr %3, align 8, !tbaa !4
  %41 = call i32 @PyModule_AddIntConstant(ptr noundef %40, ptr noundef @.str.106, i64 noundef 5)
  %42 = icmp slt i32 %41, 0
  br i1 %42, label %43, label %44

43:                                               ; preds = %39
  store i32 -1, ptr %2, align 4
  store i32 1, ptr %5, align 4
  br label %117

44:                                               ; preds = %39
  br label %45

45:                                               ; preds = %44
  br label %46

46:                                               ; preds = %45
  br label %47

47:                                               ; preds = %46
  %48 = load ptr, ptr %3, align 8, !tbaa !4
  %49 = call i32 @PyModule_AddIntConstant(ptr noundef %48, ptr noundef @.str.107, i64 noundef 1)
  %50 = icmp slt i32 %49, 0
  br i1 %50, label %51, label %52

51:                                               ; preds = %47
  store i32 -1, ptr %2, align 4
  store i32 1, ptr %5, align 4
  br label %117

52:                                               ; preds = %47
  br label %53

53:                                               ; preds = %52
  br label %54

54:                                               ; preds = %53
  br label %55

55:                                               ; preds = %54
  %56 = load ptr, ptr %3, align 8, !tbaa !4
  %57 = call i32 @PyModule_AddIntConstant(ptr noundef %56, ptr noundef @.str.108, i64 noundef 6)
  %58 = icmp slt i32 %57, 0
  br i1 %58, label %59, label %60

59:                                               ; preds = %55
  store i32 -1, ptr %2, align 4
  store i32 1, ptr %5, align 4
  br label %117

60:                                               ; preds = %55
  br label %61

61:                                               ; preds = %60
  br label %62

62:                                               ; preds = %61
  br label %63

63:                                               ; preds = %62
  %64 = load ptr, ptr %3, align 8, !tbaa !4
  %65 = call i32 @PyModule_AddIntConstant(ptr noundef %64, ptr noundef @.str.109, i64 noundef 127)
  %66 = icmp slt i32 %65, 0
  br i1 %66, label %67, label %68

67:                                               ; preds = %63
  store i32 -1, ptr %2, align 4
  store i32 1, ptr %5, align 4
  br label %117

68:                                               ; preds = %63
  br label %69

69:                                               ; preds = %68
  br label %70

70:                                               ; preds = %69
  call void @llvm.lifetime.start.p0(i64 8, ptr %6) #9
  %71 = load ptr, ptr %3, align 8, !tbaa !4
  %72 = call ptr @get_locale_state(ptr noundef %71)
  store ptr %72, ptr %6, align 8, !tbaa !10
  %73 = call ptr @PyErr_NewException(ptr noundef @.str.110, ptr noundef null, ptr noundef null)
  %74 = load ptr, ptr %6, align 8, !tbaa !10
  %75 = getelementptr inbounds nuw %struct._locale_state, ptr %74, i32 0, i32 0
  store ptr %73, ptr %75, align 8, !tbaa !12
  %76 = load ptr, ptr %3, align 8, !tbaa !4
  %77 = load ptr, ptr %6, align 8, !tbaa !10
  %78 = getelementptr inbounds nuw %struct._locale_state, ptr %77, i32 0, i32 0
  %79 = load ptr, ptr %78, align 8, !tbaa !12
  %80 = call i32 @PyModule_AddObjectRef(ptr noundef %76, ptr noundef @.str.111, ptr noundef %79)
  %81 = icmp slt i32 %80, 0
  br i1 %81, label %82, label %83

82:                                               ; preds = %70
  store i32 -1, ptr %2, align 4
  store i32 1, ptr %5, align 4
  br label %116

83:                                               ; preds = %70
  store i32 0, ptr %4, align 4, !tbaa !14
  br label %84

84:                                               ; preds = %108, %83
  %85 = load i32, ptr %4, align 4, !tbaa !14
  %86 = sext i32 %85 to i64
  %87 = getelementptr [57 x %struct.langinfo_constant], ptr @langinfo_constants, i64 0, i64 %86
  %88 = getelementptr inbounds nuw %struct.langinfo_constant, ptr %87, i32 0, i32 0
  %89 = load ptr, ptr %88, align 16, !tbaa !60
  %90 = icmp ne ptr %89, null
  br i1 %90, label %91, label %111

91:                                               ; preds = %84
  %92 = load ptr, ptr %3, align 8, !tbaa !4
  %93 = load i32, ptr %4, align 4, !tbaa !14
  %94 = sext i32 %93 to i64
  %95 = getelementptr [57 x %struct.langinfo_constant], ptr @langinfo_constants, i64 0, i64 %94
  %96 = getelementptr inbounds nuw %struct.langinfo_constant, ptr %95, i32 0, i32 0
  %97 = load ptr, ptr %96, align 16, !tbaa !60
  %98 = load i32, ptr %4, align 4, !tbaa !14
  %99 = sext i32 %98 to i64
  %100 = getelementptr [57 x %struct.langinfo_constant], ptr @langinfo_constants, i64 0, i64 %99
  %101 = getelementptr inbounds nuw %struct.langinfo_constant, ptr %100, i32 0, i32 1
  %102 = load i32, ptr %101, align 8, !tbaa !62
  %103 = sext i32 %102 to i64
  %104 = call i32 @PyModule_AddIntConstant(ptr noundef %92, ptr noundef %97, i64 noundef %103)
  %105 = icmp slt i32 %104, 0
  br i1 %105, label %106, label %107

106:                                              ; preds = %91
  store i32 -1, ptr %2, align 4
  store i32 1, ptr %5, align 4
  br label %116

107:                                              ; preds = %91
  br label %108

108:                                              ; preds = %107
  %109 = load i32, ptr %4, align 4, !tbaa !14
  %110 = add i32 %109, 1
  store i32 %110, ptr %4, align 4, !tbaa !14
  br label %84, !llvm.loop !70

111:                                              ; preds = %84
  %112 = call ptr @PyErr_Occurred()
  %113 = icmp ne ptr %112, null
  br i1 %113, label %114, label %115

114:                                              ; preds = %111
  store i32 -1, ptr %2, align 4
  store i32 1, ptr %5, align 4
  br label %116

115:                                              ; preds = %111
  store i32 0, ptr %2, align 4
  store i32 1, ptr %5, align 4
  br label %116

116:                                              ; preds = %115, %114, %106, %82
  call void @llvm.lifetime.end.p0(i64 8, ptr %6) #9
  br label %117

117:                                              ; preds = %116, %67, %59, %51, %43, %35, %27, %19, %11
  call void @llvm.lifetime.end.p0(i64 4, ptr %4) #9
  %118 = load i32, ptr %2, align 4
  ret i32 %118
}