; Function Attrs: nounwind uwtable
define internal range(i32 -1, 1) i32 @_locale_exec(ptr noundef %0) #0 {
  %2 = tail call i32 @PyModule_AddIntConstant(ptr noundef %0, ptr noundef nonnull @.str.102, i64 noundef 0) #8
  %3 = icmp slt i32 %2, 0
  br i1 %3, label %.loopexit, label %4

4:                                                ; preds = %1
  %5 = tail call i32 @PyModule_AddIntConstant(ptr noundef %0, ptr noundef nonnull @.str.103, i64 noundef 2) #8
  %6 = icmp slt i32 %5, 0
  br i1 %6, label %.loopexit, label %7

7:                                                ; preds = %4
  %8 = tail call i32 @PyModule_AddIntConstant(ptr noundef %0, ptr noundef nonnull @.str.104, i64 noundef 3) #8
  %9 = icmp slt i32 %8, 0
  br i1 %9, label %.loopexit, label %10

10:                                               ; preds = %7
  %11 = tail call i32 @PyModule_AddIntConstant(ptr noundef %0, ptr noundef nonnull @.str.105, i64 noundef 4) #8
  %12 = icmp slt i32 %11, 0
  br i1 %12, label %.loopexit, label %13

13:                                               ; preds = %10
  %14 = tail call i32 @PyModule_AddIntConstant(ptr noundef %0, ptr noundef nonnull @.str.106, i64 noundef 5) #8
  %15 = icmp slt i32 %14, 0
  br i1 %15, label %.loopexit, label %16

16:                                               ; preds = %13
  %17 = tail call i32 @PyModule_AddIntConstant(ptr noundef %0, ptr noundef nonnull @.str.107, i64 noundef 1) #8
  %18 = icmp slt i32 %17, 0
  br i1 %18, label %.loopexit, label %19

19:                                               ; preds = %16
  %20 = tail call i32 @PyModule_AddIntConstant(ptr noundef %0, ptr noundef nonnull @.str.108, i64 noundef 6) #8
  %21 = icmp slt i32 %20, 0
  br i1 %21, label %.loopexit, label %22

22:                                               ; preds = %19
  %23 = tail call i32 @PyModule_AddIntConstant(ptr noundef %0, ptr noundef nonnull @.str.109, i64 noundef 127) #8
  %24 = icmp slt i32 %23, 0
  br i1 %24, label %.loopexit, label %25

25:                                               ; preds = %22
  %26 = tail call ptr @PyModule_GetState(ptr noundef %0) #8
  %27 = tail call ptr @PyErr_NewException(ptr noundef nonnull @.str.110, ptr noundef null, ptr noundef null) #8
  store ptr %27, ptr %26, align 8, !tbaa !4
  %28 = tail call i32 @PyModule_AddObjectRef(ptr noundef %0, ptr noundef nonnull @.str.111, ptr noundef %27) #8
  %29 = icmp slt i32 %28, 0
  br i1 %29, label %.loopexit, label %.preheader

30:                                               ; preds = %.preheader
  %indvars.iv.next = add nuw nsw i64 %indvars.iv, 1
  %31 = getelementptr [57 x %struct.langinfo_constant], ptr @langinfo_constants, i64 0, i64 %indvars.iv.next
  %32 = load ptr, ptr %31, align 16, !tbaa !56
  %exitcond = icmp eq i64 %indvars.iv.next, 56
  br i1 %exitcond, label %40, label %.preheader, !llvm.loop !57

.preheader:                                       ; preds = %25, %30
  %indvars.iv = phi i64 [ %indvars.iv.next, %30 ], [ 0, %25 ]
  %33 = phi ptr [ %32, %30 ], [ @.str.43, %25 ]
  %34 = phi ptr [ %31, %30 ], [ @langinfo_constants, %25 ]
  %35 = getelementptr inbounds nuw i8, ptr %34, i64 8
  %36 = load i32, ptr %35, align 8, !tbaa !50
  %37 = sext i32 %36 to i64
  %38 = tail call i32 @PyModule_AddIntConstant(ptr noundef %0, ptr noundef nonnull %33, i64 noundef %37) #8
  %39 = icmp slt i32 %38, 0
  br i1 %39, label %.loopexit, label %30

40:                                               ; preds = %30
  %41 = tail call ptr @PyErr_Occurred() #8
  %.not19 = icmp ne ptr %41, null
  %. = sext i1 %.not19 to i32
  br label %.loopexit

.loopexit:                                        ; preds = %.preheader, %25, %40, %22, %19, %16, %13, %10, %7, %4, %1
  %.0 = phi i32 [ -1, %1 ], [ -1, %4 ], [ -1, %7 ], [ -1, %10 ], [ -1, %13 ], [ -1, %16 ], [ -1, %19 ], [ -1, %22 ], [ -1, %25 ], [ %., %40 ], [ -1, %.preheader ]
  ret i32 %.0
}